target datalayout = "e-m:e-p270:32:32-p271:32:32-p272:64:64-i64:64-i128:128-f80:128-n8:16:32:64-S128"
target triple = "x86_64-pc-linux-gnu"

%struct.PartitionKeyData = type { i32, i16, ptr, ptr, ptr, ptr, ptr, ptr, ptr, ptr, ptr, ptr, ptr, ptr }
%union.ListCell = type { ptr }
%struct.List = type { i32, i32, i32, ptr, [0 x %union.ListCell] }
%struct.PartitionRangeDatum = type { i32, i32, ptr, i32 }

@.str.1 = private unnamed_addr constant [13 x i8] c"partbounds.c\00", align 1
@.str.28 = private unnamed_addr constant [42 x i8] c"wrong number of partition key expressions\00", align 1
@__func__.get_range_key_properties = private unnamed_addr constant [25 x i8] c"get_range_key_properties\00", align 1

; Function Attrs: inlinehint nounwind uwtable
define internal ptr @lnext(ptr noundef %0, ptr noundef %1) #5 {
  %3 = alloca ptr, align 8
  %4 = alloca ptr, align 8
  %5 = alloca ptr, align 8
  store ptr %0, ptr %4, align 8
  store ptr %1, ptr %5, align 8
  %6 = load ptr, ptr %5, align 8
  %7 = getelementptr inbounds nuw %union.ListCell, ptr %6, i32 1
  store ptr %7, ptr %5, align 8
  %8 = load ptr, ptr %5, align 8
  %9 = load ptr, ptr %4, align 8
  %10 = getelementptr inbounds nuw %struct.List, ptr %9, i32 0, i32 3
  %11 = load ptr, ptr %10, align 8
  %12 = load ptr, ptr %4, align 8
  %13 = getelementptr inbounds nuw %struct.List, ptr %12, i32 0, i32 1
  %14 = load i32, ptr %13, align 4
  %15 = sext i32 %14 to i64
  %16 = getelementptr inbounds %union.ListCell, ptr %11, i64 %15
  %17 = icmp ult ptr %8, %16
  br i1 %17, label %18, label %20

18:                                               ; preds = %2
  %19 = load ptr, ptr %5, align 8
  store ptr %19, ptr %3, align 8
  br label %21

20:                                               ; preds = %2
  store ptr null, ptr %3, align 8
  br label %21

21:                                               ; preds = %20, %18
  %22 = load ptr, ptr %3, align 8
  ret ptr %22
}

; Function Attrs: nounwind uwtable
define internal void @get_range_key_properties(ptr noundef %0, i32 noundef %1, ptr noundef %2, ptr noundef %3, ptr noundef %4, ptr noundef %5, ptr noundef %6, ptr noundef %7) #0 {
  %9 = alloca ptr, align 8
  %10 = alloca i32, align 4
  %11 = alloca ptr, align 8
  %12 = alloca ptr, align 8
  %13 = alloca ptr, align 8
  %14 = alloca ptr, align 8
  %15 = alloca ptr, align 8
  %16 = alloca ptr, align 8
  store ptr %0, ptr %9, align 8
  store i32 %1, ptr %10, align 4
  store ptr %2, ptr %11, align 8
  store ptr %3, ptr %12, align 8
  store ptr %4, ptr %13, align 8
  store ptr %5, ptr %14, align 8
  store ptr %6, ptr %15, align 8
  store ptr %7, ptr %16, align 8
  %17 = load ptr, ptr %9, align 8
  %18 = getelementptr inbounds nuw %struct.PartitionKeyData, ptr %17, i32 0, i32 2
  %19 = load ptr, ptr %18, align 8
  %20 = load i32, ptr %10, align 4
  %21 = sext i32 %20 to i64
  %22 = getelementptr inbounds i16, ptr %19, i64 %21
  %23 = load i16, ptr %22, align 2
  %24 = sext i16 %23 to i32
  %25 = icmp ne i32 %24, 0
  br i1 %25, label %26, label %57

26:                                               ; preds = %8
  %27 = load ptr, ptr %9, align 8
  %28 = getelementptr inbounds nuw %struct.PartitionKeyData, ptr %27, i32 0, i32 2
  %29 = load ptr, ptr %28, align 8
  %30 = load i32, ptr %10, align 4
  %31 = sext i32 %30 to i64
  %32 = getelementptr inbounds i16, ptr %29, i64 %31
  %33 = load i16, ptr %32, align 2
  %34 = load ptr, ptr %9, align 8
  %35 = getelementptr inbounds nuw %struct.PartitionKeyData, ptr %34, i32 0, i32 8
  %36 = load ptr, ptr %35, align 8
  %37 = load i32, ptr %10, align 4
  %38 = sext i32 %37 to i64
  %39 = getelementptr inbounds i32, ptr %36, i64 %38
  %40 = load i32, ptr %39, align 4
  %41 = load ptr, ptr %9, align 8
  %42 = getelementptr inbounds nuw %struct.PartitionKeyData, ptr %41, i32 0, i32 9
  %43 = load ptr, ptr %42, align 8
  %44 = load i32, ptr %10, align 4
  %45 = sext i32 %44 to i64
  %46 = getelementptr inbounds i32, ptr %43, i64 %45
  %47 = load i32, ptr %46, align 4
  %48 = load ptr, ptr %9, align 8
  %49 = getelementptr inbounds nuw %struct.PartitionKeyData, ptr %48, i32 0, i32 13
  %50 = load ptr, ptr %49, align 8
  %51 = load i32, ptr %10, align 4
  %52 = sext i32 %51 to i64
  %53 = getelementptr inbounds i32, ptr %50, i64 %52
  %54 = load i32, ptr %53, align 4
  %55 = call ptr @makeVar(i32 noundef 1, i16 noundef signext %33, i32 noundef %40, i32 noundef %47, i32 noundef %54, i32 noundef 0)
  %56 = load ptr, ptr %14, align 8
  store ptr %55, ptr %56, align 8
  br label %84

57:                                               ; preds = %8
  %58 = load ptr, ptr %13, align 8
  %59 = load ptr, ptr %58, align 8
  %60 = icmp eq ptr %59, null
  br i1 %60, label %61, label %71

61:                                               ; preds = %57
  br label %62

62:                                               ; preds = %61
  br i1 true, label %63, label %65

63:                                               ; preds = %62
  %64 = call zeroext i1 @errstart_cold(i32 noundef 21, ptr noundef null) #10
  br i1 %64, label %67, label %69

65:                                               ; preds = %62
  %66 = call zeroext i1 @errstart(i32 noundef 21, ptr noundef null)
  br i1 %66, label %67, label %69

67:                                               ; preds = %65, %63
  %68 = call i32 (ptr, ...) @errmsg_internal(ptr noundef @.str.28)
  call void @errfinish(ptr noundef @.str.1, i32 noundef 4652, ptr noundef @__func__.get_range_key_properties)
  br label %69

69:                                               ; preds = %67, %65, %63
  unreachable

70:                                               ; No predecessors!
  br label %71

71:                                               ; preds = %70, %57
  %72 = load ptr, ptr %13, align 8
  %73 = load ptr, ptr %72, align 8
  %74 = load ptr, ptr %73, align 8
  %75 = call ptr @copyObjectImpl(ptr noundef %74)
  %76 = load ptr, ptr %14, align 8
  store ptr %75, ptr %76, align 8
  %77 = load ptr, ptr %9, align 8
  %78 = getelementptr inbounds nuw %struct.PartitionKeyData, ptr %77, i32 0, i32 3
  %79 = load ptr, ptr %78, align 8
  %80 = load ptr, ptr %13, align 8
  %81 = load ptr, ptr %80, align 8
  %82 = call ptr @lnext(ptr noundef %79, ptr noundef %81)
  %83 = load ptr, ptr %13, align 8
  store ptr %82, ptr %83, align 8
  br label %84

84:                                               ; preds = %71, %26
  %85 = load ptr, ptr %11, align 8
  %86 = getelementptr inbounds nuw %struct.PartitionRangeDatum, ptr %85, i32 0, i32 1
  %87 = load i32, ptr %86, align 4
  %88 = icmp eq i32 %87, 0
  br i1 %88, label %89, label %95

89:                                               ; preds = %84
  %90 = load ptr, ptr %11, align 8
  %91 = getelementptr inbounds nuw %struct.PartitionRangeDatum, ptr %90, i32 0, i32 2
  %92 = load ptr, ptr %91, align 8
  %93 = call ptr @copyObjectImpl(ptr noundef %92)
  %94 = load ptr, ptr %15, align 8
  store ptr %93, ptr %94, align 8
  br label %97

95:                                               ; preds = %84
  %96 = load ptr, ptr %15, align 8
  store ptr null, ptr %96, align 8
  br label %97

97:                                               ; preds = %95, %89
  %98 = load ptr, ptr %12, align 8
  %99 = getelementptr inbounds nuw %struct.PartitionRangeDatum, ptr %98, i32 0, i32 1
  %100 = load i32, ptr %99, align 4
  %101 = icmp eq i32 %100, 0
  br i1 %101, label %102, label %108

102:                                              ; preds = %97
  %103 = load ptr, ptr %12, align 8
  %104 = getelementptr inbounds nuw %struct.PartitionRangeDatum, ptr %103, i32 0, i32 2
  %105 = load ptr, ptr %104, align 8
  %106 = call ptr @copyObjectImpl(ptr noundef %105)
  %107 = load ptr, ptr %16, align 8
  store ptr %106, ptr %107, align 8
  br label %110

108:                                              ; preds = %97
  %109 = load ptr, ptr %16, align 8
  store ptr null, ptr %109, align 8
  br label %110

110:                                              ; preds = %108, %102
  ret void
}