; Function Attrs: nounwind uwtable
define internal fastcc void @get_range_key_properties(ptr noundef readonly captures(none) %0, i32 noundef %1, ptr noundef readonly captures(none) %2, ptr noundef readonly captures(none) %3, ptr noundef nonnull captures(none) %4, ptr noundef nonnull writeonly captures(none) %5, ptr noundef nonnull writeonly captures(none) %6, ptr noundef nonnull writeonly captures(none) %7) unnamed_addr #0 {
  %9 = getelementptr inbounds nuw i8, ptr %0, i64 8
  %10 = load ptr, ptr %9, align 8
  %11 = sext i32 %1 to i64
  %12 = getelementptr inbounds i16, ptr %10, i64 %11
  %13 = load i16, ptr %12, align 2
  %.not = icmp eq i16 %13, 0
  br i1 %.not, label %28, label %14

14:                                               ; preds = %8
  %15 = getelementptr inbounds nuw i8, ptr %0, i64 56
  %16 = load ptr, ptr %15, align 8
  %17 = getelementptr inbounds i32, ptr %16, i64 %11
  %18 = load i32, ptr %17, align 4
  %19 = getelementptr inbounds nuw i8, ptr %0, i64 64
  %20 = load ptr, ptr %19, align 8
  %21 = getelementptr inbounds i32, ptr %20, i64 %11
  %22 = load i32, ptr %21, align 4
  %23 = getelementptr inbounds nuw i8, ptr %0, i64 96
  %24 = load ptr, ptr %23, align 8
  %25 = getelementptr inbounds i32, ptr %24, i64 %11
  %26 = load i32, ptr %25, align 4
  %27 = tail call ptr @makeVar(i32 noundef 1, i16 noundef signext %13, i32 noundef %18, i32 noundef %22, i32 noundef %26, i32 noundef 0) #12
  store ptr %27, ptr %5, align 8
  br label %46

28:                                               ; preds = %8
  %29 = load ptr, ptr %4, align 8
  %30 = icmp eq ptr %29, null
  br i1 %30, label %31, label %34

31:                                               ; preds = %28
  %32 = tail call zeroext i1 @errstart_cold(i32 noundef 21, ptr noundef null) #13
  tail call void @llvm.assume(i1 %32)
  %33 = tail call i32 (ptr, ...) @errmsg_internal(ptr noundef nonnull @.str.28) #12
  tail call void @errfinish(ptr noundef nonnull @.str.1, i32 noundef 4652, ptr noundef nonnull @__func__.get_range_key_properties) #12
  unreachable

34:                                               ; preds = %28
  %35 = load ptr, ptr %29, align 8
  %36 = tail call ptr @copyObjectImpl(ptr noundef %35) #12
  store ptr %36, ptr %5, align 8
  %37 = getelementptr inbounds nuw i8, ptr %0, i64 16
  %38 = load ptr, ptr %37, align 8
  %39 = load ptr, ptr %4, align 8
  %40 = getelementptr i8, ptr %38, i64 4
  %.val = load i32, ptr %40, align 4
  %41 = getelementptr i8, ptr %38, i64 16
  %.val25 = load ptr, ptr %41, align 8
  %42 = getelementptr inbounds nuw i8, ptr %39, i64 8
  %43 = sext i32 %.val to i64
  %44 = getelementptr inbounds %union.ListCell, ptr %.val25, i64 %43
  %45 = icmp ult ptr %42, %44
  %..i = select i1 %45, ptr %42, ptr null
  store ptr %..i, ptr %4, align 8
  br label %46

46:                                               ; preds = %34, %14
  %47 = getelementptr inbounds nuw i8, ptr %2, i64 4
  %48 = load i32, ptr %47, align 4
  %49 = icmp eq i32 %48, 0
  br i1 %49, label %50, label %54

50:                                               ; preds = %46
  %51 = getelementptr inbounds nuw i8, ptr %2, i64 8
  %52 = load ptr, ptr %51, align 8
  %53 = tail call ptr @copyObjectImpl(ptr noundef %52) #12
  br label %54

54:                                               ; preds = %46, %50
  %storemerge = phi ptr [ %53, %50 ], [ null, %46 ]
  store ptr %storemerge, ptr %6, align 8
  %55 = getelementptr inbounds nuw i8, ptr %3, i64 4
  %56 = load i32, ptr %55, align 4
  %57 = icmp eq i32 %56, 0
  br i1 %57, label %58, label %62

58:                                               ; preds = %54
  %59 = getelementptr inbounds nuw i8, ptr %3, i64 8
  %60 = load ptr, ptr %59, align 8
  %61 = tail call ptr @copyObjectImpl(ptr noundef %60) #12
  br label %62

62:                                               ; preds = %54, %58
  %storemerge24 = phi ptr [ %61, %58 ], [ null, %54 ]
  store ptr %storemerge24, ptr %7, align 8
  ret void
}